target datalayout = "e-m:e-p270:32:32-p271:32:32-p272:64:64-i64:64-i128:128-f80:128-n8:16:32:64-S128"
target triple = "x86_64-pc-linux-gnu"

%struct.ssl_trace_tbl = type { i32, ptr }

@.str.15 = private unnamed_addr constant [8 x i8] c"UNKNOWN\00", align 1
@.str.586 = private unnamed_addr constant [9 x i8] c"%s (%d)\0A\00", align 1

; Function Attrs: nounwind uwtable
define internal ptr @do_ssl_trace_str(i32 noundef %0, ptr noundef %1, i64 noundef %2) #0 {
  %4 = alloca ptr, align 8
  %5 = alloca i32, align 4
  %6 = alloca ptr, align 8
  %7 = alloca i64, align 8
  %8 = alloca i64, align 8
  %9 = alloca i32, align 4
  store i32 %0, ptr %5, align 4, !tbaa !3
  store ptr %1, ptr %6, align 8, !tbaa !7
  store i64 %2, ptr %7, align 8, !tbaa !9
  call void @llvm.lifetime.start.p0(i64 8, ptr %8) #3
  store i64 0, ptr %8, align 8, !tbaa !9
  br label %10

10:                                               ; preds = %25, %3
  %11 = load i64, ptr %8, align 8, !tbaa !9
  %12 = load i64, ptr %7, align 8, !tbaa !9
  %13 = icmp ult i64 %11, %12
  br i1 %13, label %14, label %30

14:                                               ; preds = %10
  %15 = load ptr, ptr %6, align 8, !tbaa !7
  %16 = getelementptr inbounds nuw %struct.ssl_trace_tbl, ptr %15, i32 0, i32 0
  %17 = load i32, ptr %16, align 8, !tbaa !88
  %18 = load i32, ptr %5, align 4, !tbaa !3
  %19 = icmp eq i32 %17, %18
  br i1 %19, label %20, label %24

20:                                               ; preds = %14
  %21 = load ptr, ptr %6, align 8, !tbaa !7
  %22 = getelementptr inbounds nuw %struct.ssl_trace_tbl, ptr %21, i32 0, i32 1
  %23 = load ptr, ptr %22, align 8, !tbaa !90
  store ptr %23, ptr %4, align 8
  store i32 1, ptr %9, align 4
  br label %31

24:                                               ; preds = %14
  br label %25

25:                                               ; preds = %24
  %26 = load i64, ptr %8, align 8, !tbaa !9
  %27 = add i64 %26, 1
  store i64 %27, ptr %8, align 8, !tbaa !9
  %28 = load ptr, ptr %6, align 8, !tbaa !7
  %29 = getelementptr inbounds nuw %struct.ssl_trace_tbl, ptr %28, i32 1
  store ptr %29, ptr %6, align 8, !tbaa !7
  br label %10, !llvm.loop !91

30:                                               ; preds = %10
  store ptr @.str.15, ptr %4, align 8
  store i32 1, ptr %9, align 4
  br label %31

31:                                               ; preds = %30, %20
  call void @llvm.lifetime.end.p0(i64 8, ptr %8) #3
  %32 = load ptr, ptr %4, align 8
  ret ptr %32
}

; Function Attrs: nounwind uwtable
define internal i32 @do_ssl_trace_list(ptr noundef %0, i32 noundef %1, ptr noundef %2, i64 noundef %3, i64 noundef %4, ptr noundef %5, i64 noundef %6) #0 {
  %8 = alloca i32, align 4
  %9 = alloca ptr, align 8
  %10 = alloca i32, align 4
  %11 = alloca ptr, align 8
  %12 = alloca i64, align 8
  %13 = alloca i64, align 8
  %14 = alloca ptr, align 8
  %15 = alloca i64, align 8
  %16 = alloca i32, align 4
  %17 = alloca i32, align 4
  store ptr %0, ptr %9, align 8, !tbaa !15
  store i32 %1, ptr %10, align 4, !tbaa !3
  store ptr %2, ptr %11, align 8, !tbaa !13
  store i64 %3, ptr %12, align 8, !tbaa !9
  store i64 %4, ptr %13, align 8, !tbaa !9
  store ptr %5, ptr %14, align 8, !tbaa !7
  store i64 %6, ptr %15, align 8, !tbaa !9
  call void @llvm.lifetime.start.p0(i64 4, ptr %16) #3
  %18 = load i64, ptr %12, align 8, !tbaa !9
  %19 = load i64, ptr %13, align 8, !tbaa !9
  %20 = urem i64 %18, %19
  %21 = icmp ne i64 %20, 0
  br i1 %21, label %22, label %23

22:                                               ; preds = %7
  store i32 0, ptr %8, align 4
  store i32 1, ptr %17, align 4
  br label %60

23:                                               ; preds = %7
  br label %24

24:                                               ; preds = %42, %23
  %25 = load i64, ptr %12, align 8, !tbaa !9
  %26 = icmp ne i64 %25, 0
  br i1 %26, label %27, label %59

27:                                               ; preds = %24
  %28 = load ptr, ptr %11, align 8, !tbaa !13
  %29 = getelementptr inbounds i8, ptr %28, i64 0
  %30 = load i8, ptr %29, align 1, !tbaa !84
  %31 = zext i8 %30 to i32
  store i32 %31, ptr %16, align 4, !tbaa !3
  %32 = load i64, ptr %13, align 8, !tbaa !9
  %33 = icmp eq i64 %32, 2
  br i1 %33, label %34, label %42

34:                                               ; preds = %27
  %35 = load i32, ptr %16, align 4, !tbaa !3
  %36 = shl i32 %35, 8
  %37 = load ptr, ptr %11, align 8, !tbaa !13
  %38 = getelementptr inbounds i8, ptr %37, i64 1
  %39 = load i8, ptr %38, align 1, !tbaa !84
  %40 = zext i8 %39 to i32
  %41 = or i32 %36, %40
  store i32 %41, ptr %16, align 4, !tbaa !3
  br label %42

42:                                               ; preds = %34, %27
  %43 = load ptr, ptr %9, align 8, !tbaa !15
  %44 = load i32, ptr %10, align 4, !tbaa !3
  %45 = call i32 @BIO_indent(ptr noundef %43, i32 noundef %44, i32 noundef 80)
  %46 = load ptr, ptr %9, align 8, !tbaa !15
  %47 = load i32, ptr %16, align 4, !tbaa !3
  %48 = load ptr, ptr %14, align 8, !tbaa !7
  %49 = load i64, ptr %15, align 8, !tbaa !9
  %50 = call ptr @do_ssl_trace_str(i32 noundef %47, ptr noundef %48, i64 noundef %49)
  %51 = load i32, ptr %16, align 4, !tbaa !3
  %52 = call i32 (ptr, ptr, ...) @BIO_printf(ptr noundef %46, ptr noundef @.str.586, ptr noundef %50, i32 noundef %51)
  %53 = load i64, ptr %13, align 8, !tbaa !9
  %54 = load ptr, ptr %11, align 8, !tbaa !13
  %55 = getelementptr inbounds nuw i8, ptr %54, i64 %53
  store ptr %55, ptr %11, align 8, !tbaa !13
  %56 = load i64, ptr %13, align 8, !tbaa !9
  %57 = load i64, ptr %12, align 8, !tbaa !9
  %58 = sub i64 %57, %56
  store i64 %58, ptr %12, align 8, !tbaa !9
  br label %24, !llvm.loop !106

59:                                               ; preds = %24
  store i32 1, ptr %8, align 4
  store i32 1, ptr %17, align 4
  br label %60

60:                                               ; preds = %59, %22
  call void @llvm.lifetime.end.p0(i64 4, ptr %16) #3
  %61 = load i32, ptr %8, align 4
  ret i32 %61
}