; Function Attrs: nounwind uwtable
define internal fastcc range(i32 0, 2) i32 @do_ssl_trace_list(ptr noundef %0, i32 noundef range(i32 6, 13) %1, ptr noundef readonly captures(none) %2, i64 noundef range(i64 0, 65536) %3, i64 noundef range(i64 1, 3) %4, ptr noundef readonly captures(none) %5, i64 noundef range(i64 2, 52) %6) unnamed_addr #0 {
  %.lhs.trunc = trunc nuw i64 %3 to i16
  %.rhs.trunc = trunc nuw nsw i64 %4 to i16
  %8 = urem i16 %.lhs.trunc, %.rhs.trunc
  %.not = icmp eq i16 %8, 0
  br i1 %.not, label %.preheader, label %.loopexit

.preheader:                                       ; preds = %7
  %.not2123 = icmp eq i64 %3, 0
  br i1 %.not2123, label %.loopexit, label %.lr.ph

.lr.ph:                                           ; preds = %.preheader
  %9 = icmp eq i64 %4, 2
  br i1 %9, label %.lr.ph.split.us, label %.lr.ph.split

.lr.ph.split.us:                                  ; preds = %.lr.ph, %do_ssl_trace_str.exit.us
  %.01925.us = phi ptr [ %28, %do_ssl_trace_str.exit.us ], [ %2, %.lr.ph ]
  %.02024.us = phi i64 [ %29, %do_ssl_trace_str.exit.us ], [ %3, %.lr.ph ]
  %10 = load i8, ptr %.01925.us, align 1, !tbaa !75
  %11 = zext i8 %10 to i32
  %12 = shl nuw nsw i32 %11, 8
  %13 = getelementptr inbounds nuw i8, ptr %.01925.us, i64 1
  %14 = load i8, ptr %13, align 1, !tbaa !75
  %15 = zext i8 %14 to i32
  %16 = or disjoint i32 %12, %15
  %17 = tail call i32 @BIO_indent(ptr noundef %0, i32 noundef %1, i32 noundef 80) #3
  br label %18

18:                                               ; preds = %21, %.lr.ph.split.us
  %.011.i.us = phi i64 [ 0, %.lr.ph.split.us ], [ %22, %21 ]
  %.0810.i.us = phi ptr [ %5, %.lr.ph.split.us ], [ %23, %21 ]
  %19 = load i32, ptr %.0810.i.us, align 8, !tbaa !78
  %20 = icmp eq i32 %19, %16
  br i1 %20, label %24, label %21

21:                                               ; preds = %18
  %22 = add nuw nsw i64 %.011.i.us, 1
  %23 = getelementptr inbounds nuw i8, ptr %.0810.i.us, i64 16
  %exitcond.not.i.us = icmp eq i64 %22, %6
  br i1 %exitcond.not.i.us, label %do_ssl_trace_str.exit.us, label %18, !llvm.loop !81

24:                                               ; preds = %18
  %25 = getelementptr inbounds nuw i8, ptr %.0810.i.us, i64 8
  %26 = load ptr, ptr %25, align 8, !tbaa !80
  br label %do_ssl_trace_str.exit.us

do_ssl_trace_str.exit.us:                         ; preds = %21, %24
  %.07.i.us = phi ptr [ %26, %24 ], [ @.str.15, %21 ]
  %27 = tail call i32 (ptr, ptr, ...) @BIO_printf(ptr noundef %0, ptr noundef nonnull @.str.586, ptr noundef %.07.i.us, i32 noundef %16) #3
  %28 = getelementptr inbounds nuw i8, ptr %.01925.us, i64 2
  %29 = add i64 %.02024.us, -2
  %.not21.us = icmp eq i64 %29, 0
  br i1 %.not21.us, label %.loopexit, label %.lr.ph.split.us, !llvm.loop !112

.lr.ph.split:                                     ; preds = %.lr.ph, %do_ssl_trace_str.exit
  %.01925 = phi ptr [ %43, %do_ssl_trace_str.exit ], [ %2, %.lr.ph ]
  %.02024 = phi i64 [ %44, %do_ssl_trace_str.exit ], [ %3, %.lr.ph ]
  %30 = load i8, ptr %.01925, align 1, !tbaa !75
  %31 = zext i8 %30 to i32
  %32 = tail call i32 @BIO_indent(ptr noundef %0, i32 noundef %1, i32 noundef 80) #3
  br label %33

33:                                               ; preds = %39, %.lr.ph.split
  %.011.i = phi i64 [ 0, %.lr.ph.split ], [ %40, %39 ]
  %.0810.i = phi ptr [ %5, %.lr.ph.split ], [ %41, %39 ]
  %34 = load i32, ptr %.0810.i, align 8, !tbaa !78
  %35 = icmp eq i32 %34, %31
  br i1 %35, label %36, label %39

36:                                               ; preds = %33
  %37 = getelementptr inbounds nuw i8, ptr %.0810.i, i64 8
  %38 = load ptr, ptr %37, align 8, !tbaa !80
  br label %do_ssl_trace_str.exit

39:                                               ; preds = %33
  %40 = add nuw nsw i64 %.011.i, 1
  %41 = getelementptr inbounds nuw i8, ptr %.0810.i, i64 16
  %exitcond.not.i = icmp eq i64 %40, %6
  br i1 %exitcond.not.i, label %do_ssl_trace_str.exit, label %33, !llvm.loop !81

do_ssl_trace_str.exit:                            ; preds = %39, %36
  %.07.i = phi ptr [ %38, %36 ], [ @.str.15, %39 ]
  %42 = tail call i32 (ptr, ptr, ...) @BIO_printf(ptr noundef %0, ptr noundef nonnull @.str.586, ptr noundef %.07.i, i32 noundef %31) #3
  %43 = getelementptr inbounds nuw i8, ptr %.01925, i64 %4
  %44 = sub i64 %.02024, %4
  %.not21 = icmp eq i64 %44, 0
  br i1 %.not21, label %.loopexit, label %.lr.ph.split, !llvm.loop !112

.loopexit:                                        ; preds = %do_ssl_trace_str.exit, %do_ssl_trace_str.exit.us, %.preheader, %7
  %.018 = phi i32 [ 0, %7 ], [ 1, %.preheader ], [ 1, %do_ssl_trace_str.exit.us ], [ 1, %do_ssl_trace_str.exit ]
  ret i32 %.018
}